target datalayout = "e-m:e-p270:32:32-p271:32:32-p272:64:64-i64:64-i128:128-f80:128-n8:16:32:64-S128"
target triple = "x86_64-pc-linux-gnu"

%struct.__loadu_ps = type { <4 x float> }
%struct.__storeu_ps = type { <4 x float> }
%struct.stbir__contributors = type { i32, i32 }

; Function Attrs: alwaysinline nounwind uwtable
define available_externally void @_mm_storeu_ps(ptr noundef %0, <4 x float> noundef %1) #2 {
  %3 = alloca ptr, align 8
  %4 = alloca <4 x float>, align 16
  store ptr %0, ptr %3, align 8, !tbaa !21
  store <4 x float> %1, ptr %4, align 16, !tbaa !12
  %5 = load <4 x float>, ptr %4, align 16, !tbaa !12
  %6 = load ptr, ptr %3, align 8, !tbaa !21
  %7 = getelementptr inbounds nuw %struct.__storeu_ps, ptr %6, i32 0, i32 0
  store <4 x float> %5, ptr %7, align 1, !tbaa !12
  ret void
}

; Function Attrs: alwaysinline nounwind uwtable
define available_externally <4 x float> @_mm_add_ps(<4 x float> noundef %0, <4 x float> noundef %1) #2 {
  %3 = alloca <4 x float>, align 16
  %4 = alloca <4 x float>, align 16
  store <4 x float> %0, ptr %3, align 16, !tbaa !12
  store <4 x float> %1, ptr %4, align 16, !tbaa !12
  %5 = load <4 x float>, ptr %3, align 16, !tbaa !12
  %6 = load <4 x float>, ptr %4, align 16, !tbaa !12
  %7 = fadd <4 x float> %5, %6
  ret <4 x float> %7
}

; Function Attrs: alwaysinline nounwind uwtable
define available_externally <4 x float> @_mm_mul_ps(<4 x float> noundef %0, <4 x float> noundef %1) #2 {
  %3 = alloca <4 x float>, align 16
  %4 = alloca <4 x float>, align 16
  store <4 x float> %0, ptr %3, align 16, !tbaa !12
  store <4 x float> %1, ptr %4, align 16, !tbaa !12
  %5 = load <4 x float>, ptr %3, align 16, !tbaa !12
  %6 = load <4 x float>, ptr %4, align 16, !tbaa !12
  %7 = fmul <4 x float> %5, %6
  ret <4 x float> %7
}

; Function Attrs: alwaysinline nounwind uwtable
define available_externally <4 x float> @_mm_castsi128_ps(<2 x i64> noundef %0) #2 {
  %2 = alloca <2 x i64>, align 16
  store <2 x i64> %0, ptr %2, align 16, !tbaa !12
  %3 = load <2 x i64>, ptr %2, align 16, !tbaa !12
  %4 = bitcast <2 x i64> %3 to <4 x float>
  ret <4 x float> %4
}

; Function Attrs: alwaysinline nounwind uwtable
define available_externally <2 x i64> @_mm_castps_si128(<4 x float> noundef %0) #2 {
  %2 = alloca <4 x float>, align 16
  store <4 x float> %0, ptr %2, align 16, !tbaa !12
  %3 = load <4 x float>, ptr %2, align 16, !tbaa !12
  %4 = bitcast <4 x float> %3 to <2 x i64>
  ret <2 x i64> %4
}

; Function Attrs: alwaysinline nounwind uwtable
define available_externally <4 x float> @_mm_loadu_ps(ptr noundef %0) #2 {
  %2 = alloca ptr, align 8
  store ptr %0, ptr %2, align 8, !tbaa !21
  %3 = load ptr, ptr %2, align 8, !tbaa !21
  %4 = getelementptr inbounds nuw %struct.__loadu_ps, ptr %3, i32 0, i32 0
  %5 = load <4 x float>, ptr %4, align 1, !tbaa !12
  ret <4 x float> %5
}

; Function Attrs: nounwind uwtable
define void @stbir__horizontal_gather_7_channels_with_8_coeffs(ptr noundef %0, i32 noundef %1, ptr noundef %2, ptr noundef %3, ptr noundef %4, i32 noundef %5) #0 {
  %7 = alloca ptr, align 8
  %8 = alloca i32, align 4
  %9 = alloca ptr, align 8
  %10 = alloca ptr, align 8
  %11 = alloca ptr, align 8
  %12 = alloca i32, align 4
  %13 = alloca ptr, align 8
  %14 = alloca ptr, align 8
  %15 = alloca ptr, align 8
  %16 = alloca ptr, align 8
  %17 = alloca <4 x float>, align 16
  %18 = alloca <4 x float>, align 16
  %19 = alloca <4 x float>, align 16
  %20 = alloca <4 x float>, align 16
  %21 = alloca <4 x float>, align 16
  %22 = alloca <4 x float>, align 16
  store ptr %0, ptr %7, align 8, !tbaa !21
  store i32 %1, ptr %8, align 4, !tbaa !26
  store ptr %2, ptr %9, align 8, !tbaa !21
  store ptr %3, ptr %10, align 8, !tbaa !3
  store ptr %4, ptr %11, align 8, !tbaa !21
  store i32 %5, ptr %12, align 4, !tbaa !26
  call void @llvm.lifetime.start.p0(i64 8, ptr %13) #12
  %23 = load ptr, ptr %7, align 8, !tbaa !21
  %24 = load i32, ptr %8, align 4, !tbaa !26
  %25 = mul i32 %24, 7
  %26 = zext i32 %25 to i64
  %27 = getelementptr inbounds nuw float, ptr %23, i64 %26
  store ptr %27, ptr %13, align 8, !tbaa !21
  call void @llvm.lifetime.start.p0(i64 8, ptr %14) #12
  %28 = load ptr, ptr %7, align 8, !tbaa !21
  store ptr %28, ptr %14, align 8, !tbaa !21
  br label %29

29:                                               ; preds = %222, %6
  call void @llvm.lifetime.start.p0(i64 8, ptr %15) #12
  %30 = load ptr, ptr %9, align 8, !tbaa !21
  %31 = load ptr, ptr %10, align 8, !tbaa !3
  %32 = getelementptr inbounds nuw %struct.stbir__contributors, ptr %31, i32 0, i32 0
  %33 = load i32, ptr %32, align 4, !tbaa !41
  %34 = mul nsw i32 %33, 7
  %35 = sext i32 %34 to i64
  %36 = getelementptr inbounds float, ptr %30, i64 %35
  store ptr %36, ptr %15, align 8, !tbaa !21
  call void @llvm.lifetime.start.p0(i64 8, ptr %16) #12
  %37 = load ptr, ptr %11, align 8, !tbaa !21
  store ptr %37, ptr %16, align 8, !tbaa !21
  call void @llvm.lifetime.start.p0(i64 16, ptr %17) #12
  call void @llvm.lifetime.start.p0(i64 16, ptr %18) #12
  call void @llvm.lifetime.start.p0(i64 16, ptr %19) #12
  call void @llvm.lifetime.start.p0(i64 16, ptr %20) #12
  call void @llvm.lifetime.start.p0(i64 16, ptr %21) #12
  call void @llvm.lifetime.start.p0(i64 16, ptr %22) #12
  %38 = load ptr, ptr %15, align 8, !tbaa !21
  call void asm sideeffect "", "r,~{dirflag},~{fpsr},~{flags}"(ptr %38) #12, !srcloc !758
  %39 = load ptr, ptr %16, align 8, !tbaa !21
  %40 = call <4 x float> @_mm_loadu_ps(ptr noundef %39)
  store <4 x float> %40, ptr %22, align 16, !tbaa !12
  %41 = load <4 x float>, ptr %22, align 16, !tbaa !12
  %42 = call <2 x i64> @_mm_castps_si128(<4 x float> noundef %41)
  %43 = bitcast <2 x i64> %42 to <4 x i32>
  %44 = shufflevector <4 x i32> %43, <4 x i32> poison, <4 x i32> zeroinitializer
  %45 = bitcast <4 x i32> %44 to <2 x i64>
  %46 = call <4 x float> @_mm_castsi128_ps(<2 x i64> noundef %45)
  store <4 x float> %46, ptr %21, align 16, !tbaa !12
  %47 = load <4 x float>, ptr %21, align 16, !tbaa !12
  %48 = load ptr, ptr %15, align 8, !tbaa !21
  %49 = call <4 x float> @_mm_loadu_ps(ptr noundef %48)
  %50 = call <4 x float> @_mm_mul_ps(<4 x float> noundef %47, <4 x float> noundef %49)
  store <4 x float> %50, ptr %17, align 16, !tbaa !12
  %51 = load <4 x float>, ptr %21, align 16, !tbaa !12
  %52 = load ptr, ptr %15, align 8, !tbaa !21
  %53 = getelementptr inbounds float, ptr %52, i64 3
  %54 = call <4 x float> @_mm_loadu_ps(ptr noundef %53)
  %55 = call <4 x float> @_mm_mul_ps(<4 x float> noundef %51, <4 x float> noundef %54)
  store <4 x float> %55, ptr %18, align 16, !tbaa !12
  %56 = load <4 x float>, ptr %22, align 16, !tbaa !12
  %57 = call <2 x i64> @_mm_castps_si128(<4 x float> noundef %56)
  %58 = bitcast <2 x i64> %57 to <4 x i32>
  %59 = shufflevector <4 x i32> %58, <4 x i32> poison, <4 x i32> <i32 1, i32 1, i32 1, i32 1>
  %60 = bitcast <4 x i32> %59 to <2 x i64>
  %61 = call <4 x float> @_mm_castsi128_ps(<2 x i64> noundef %60)
  store <4 x float> %61, ptr %21, align 16, !tbaa !12
  %62 = load <4 x float>, ptr %21, align 16, !tbaa !12
  %63 = load ptr, ptr %15, align 8, !tbaa !21
  %64 = getelementptr inbounds float, ptr %63, i64 7
  %65 = call <4 x float> @_mm_loadu_ps(ptr noundef %64)
  %66 = call <4 x float> @_mm_mul_ps(<4 x float> noundef %62, <4 x float> noundef %65)
  store <4 x float> %66, ptr %19, align 16, !tbaa !12
  %67 = load <4 x float>, ptr %21, align 16, !tbaa !12
  %68 = load ptr, ptr %15, align 8, !tbaa !21
  %69 = getelementptr inbounds float, ptr %68, i64 10
  %70 = call <4 x float> @_mm_loadu_ps(ptr noundef %69)
  %71 = call <4 x float> @_mm_mul_ps(<4 x float> noundef %67, <4 x float> noundef %70)
  store <4 x float> %71, ptr %20, align 16, !tbaa !12
  %72 = load <4 x float>, ptr %22, align 16, !tbaa !12
  %73 = call <2 x i64> @_mm_castps_si128(<4 x float> noundef %72)
  %74 = bitcast <2 x i64> %73 to <4 x i32>
  %75 = shufflevector <4 x i32> %74, <4 x i32> poison, <4 x i32> <i32 2, i32 2, i32 2, i32 2>
  %76 = bitcast <4 x i32> %75 to <2 x i64>
  %77 = call <4 x float> @_mm_castsi128_ps(<2 x i64> noundef %76)
  store <4 x float> %77, ptr %21, align 16, !tbaa !12
  %78 = load <4 x float>, ptr %17, align 16, !tbaa !12
  %79 = load <4 x float>, ptr %21, align 16, !tbaa !12
  %80 = load ptr, ptr %15, align 8, !tbaa !21
  %81 = getelementptr inbounds float, ptr %80, i64 14
  %82 = call <4 x float> @_mm_loadu_ps(ptr noundef %81)
  %83 = call <4 x float> @_mm_mul_ps(<4 x float> noundef %79, <4 x float> noundef %82)
  %84 = call <4 x float> @_mm_add_ps(<4 x float> noundef %78, <4 x float> noundef %83)
  store <4 x float> %84, ptr %17, align 16, !tbaa !12
  %85 = load <4 x float>, ptr %18, align 16, !tbaa !12
  %86 = load <4 x float>, ptr %21, align 16, !tbaa !12
  %87 = load ptr, ptr %15, align 8, !tbaa !21
  %88 = getelementptr inbounds float, ptr %87, i64 17
  %89 = call <4 x float> @_mm_loadu_ps(ptr noundef %88)
  %90 = call <4 x float> @_mm_mul_ps(<4 x float> noundef %86, <4 x float> noundef %89)
  %91 = call <4 x float> @_mm_add_ps(<4 x float> noundef %85, <4 x float> noundef %90)
  store <4 x float> %91, ptr %18, align 16, !tbaa !12
  %92 = load <4 x float>, ptr %22, align 16, !tbaa !12
  %93 = call <2 x i64> @_mm_castps_si128(<4 x float> noundef %92)
  %94 = bitcast <2 x i64> %93 to <4 x i32>
  %95 = shufflevector <4 x i32> %94, <4 x i32> poison, <4 x i32> <i32 3, i32 3, i32 3, i32 3>
  %96 = bitcast <4 x i32> %95 to <2 x i64>
  %97 = call <4 x float> @_mm_castsi128_ps(<2 x i64> noundef %96)
  store <4 x float> %97, ptr %21, align 16, !tbaa !12
  %98 = load <4 x float>, ptr %19, align 16, !tbaa !12
  %99 = load <4 x float>, ptr %21, align 16, !tbaa !12
  %100 = load ptr, ptr %15, align 8, !tbaa !21
  %101 = getelementptr inbounds float, ptr %100, i64 21
  %102 = call <4 x float> @_mm_loadu_ps(ptr noundef %101)
  %103 = call <4 x float> @_mm_mul_ps(<4 x float> noundef %99, <4 x float> noundef %102)
  %104 = call <4 x float> @_mm_add_ps(<4 x float> noundef %98, <4 x float> noundef %103)
  store <4 x float> %104, ptr %19, align 16, !tbaa !12
  %105 = load <4 x float>, ptr %20, align 16, !tbaa !12
  %106 = load <4 x float>, ptr %21, align 16, !tbaa !12
  %107 = load ptr, ptr %15, align 8, !tbaa !21
  %108 = getelementptr inbounds float, ptr %107, i64 24
  %109 = call <4 x float> @_mm_loadu_ps(ptr noundef %108)
  %110 = call <4 x float> @_mm_mul_ps(<4 x float> noundef %106, <4 x float> noundef %109)
  %111 = call <4 x float> @_mm_add_ps(<4 x float> noundef %105, <4 x float> noundef %110)
  store <4 x float> %111, ptr %20, align 16, !tbaa !12
  %112 = load ptr, ptr %15, align 8, !tbaa !21
  call void asm sideeffect "", "r,~{dirflag},~{fpsr},~{flags}"(ptr %112) #12, !srcloc !759
  %113 = load ptr, ptr %16, align 8, !tbaa !21
  %114 = getelementptr inbounds float, ptr %113, i64 4
  %115 = call <4 x float> @_mm_loadu_ps(ptr noundef %114)
  store <4 x float> %115, ptr %22, align 16, !tbaa !12
  %116 = load <4 x float>, ptr %22, align 16, !tbaa !12
  %117 = call <2 x i64> @_mm_castps_si128(<4 x float> noundef %116)
  %118 = bitcast <2 x i64> %117 to <4 x i32>
  %119 = shufflevector <4 x i32> %118, <4 x i32> poison, <4 x i32> zeroinitializer
  %120 = bitcast <4 x i32> %119 to <2 x i64>
  %121 = call <4 x float> @_mm_castsi128_ps(<2 x i64> noundef %120)
  store <4 x float> %121, ptr %21, align 16, !tbaa !12
  %122 = load <4 x float>, ptr %17, align 16, !tbaa !12
  %123 = load <4 x float>, ptr %21, align 16, !tbaa !12
  %124 = load ptr, ptr %15, align 8, !tbaa !21
  %125 = getelementptr inbounds float, ptr %124, i64 28
  %126 = call <4 x float> @_mm_loadu_ps(ptr noundef %125)
  %127 = call <4 x float> @_mm_mul_ps(<4 x float> noundef %123, <4 x float> noundef %126)
  %128 = call <4 x float> @_mm_add_ps(<4 x float> noundef %122, <4 x float> noundef %127)
  store <4 x float> %128, ptr %17, align 16, !tbaa !12
  %129 = load <4 x float>, ptr %18, align 16, !tbaa !12
  %130 = load <4 x float>, ptr %21, align 16, !tbaa !12
  %131 = load ptr, ptr %15, align 8, !tbaa !21
  %132 = getelementptr inbounds float, ptr %131, i64 28
  %133 = getelementptr inbounds float, ptr %132, i64 3
  %134 = call <4 x float> @_mm_loadu_ps(ptr noundef %133)
  %135 = call <4 x float> @_mm_mul_ps(<4 x float> noundef %130, <4 x float> noundef %134)
  %136 = call <4 x float> @_mm_add_ps(<4 x float> noundef %129, <4 x float> noundef %135)
  store <4 x float> %136, ptr %18, align 16, !tbaa !12
  %137 = load <4 x float>, ptr %22, align 16, !tbaa !12
  %138 = call <2 x i64> @_mm_castps_si128(<4 x float> noundef %137)
  %139 = bitcast <2 x i64> %138 to <4 x i32>
  %140 = shufflevector <4 x i32> %139, <4 x i32> poison, <4 x i32> <i32 1, i32 1, i32 1, i32 1>
  %141 = bitcast <4 x i32> %140 to <2 x i64>
  %142 = call <4 x float> @_mm_castsi128_ps(<2 x i64> noundef %141)
  store <4 x float> %142, ptr %21, align 16, !tbaa !12
  %143 = load <4 x float>, ptr %19, align 16, !tbaa !12
  %144 = load <4 x float>, ptr %21, align 16, !tbaa !12
  %145 = load ptr, ptr %15, align 8, !tbaa !21
  %146 = getelementptr inbounds float, ptr %145, i64 28
  %147 = getelementptr inbounds float, ptr %146, i64 7
  %148 = call <4 x float> @_mm_loadu_ps(ptr noundef %147)
  %149 = call <4 x float> @_mm_mul_ps(<4 x float> noundef %144, <4 x float> noundef %148)
  %150 = call <4 x float> @_mm_add_ps(<4 x float> noundef %143, <4 x float> noundef %149)
  store <4 x float> %150, ptr %19, align 16, !tbaa !12
  %151 = load <4 x float>, ptr %20, align 16, !tbaa !12
  %152 = load <4 x float>, ptr %21, align 16, !tbaa !12
  %153 = load ptr, ptr %15, align 8, !tbaa !21
  %154 = getelementptr inbounds float, ptr %153, i64 28
  %155 = getelementptr inbounds float, ptr %154, i64 10
  %156 = call <4 x float> @_mm_loadu_ps(ptr noundef %155)
  %157 = call <4 x float> @_mm_mul_ps(<4 x float> noundef %152, <4 x float> noundef %156)
  %158 = call <4 x float> @_mm_add_ps(<4 x float> noundef %151, <4 x float> noundef %157)
  store <4 x float> %158, ptr %20, align 16, !tbaa !12
  %159 = load <4 x float>, ptr %22, align 16, !tbaa !12
  %160 = call <2 x i64> @_mm_castps_si128(<4 x float> noundef %159)
  %161 = bitcast <2 x i64> %160 to <4 x i32>
  %162 = shufflevector <4 x i32> %161, <4 x i32> poison, <4 x i32> <i32 2, i32 2, i32 2, i32 2>
  %163 = bitcast <4 x i32> %162 to <2 x i64>
  %164 = call <4 x float> @_mm_castsi128_ps(<2 x i64> noundef %163)
  store <4 x float> %164, ptr %21, align 16, !tbaa !12
  %165 = load <4 x float>, ptr %17, align 16, !tbaa !12
  %166 = load <4 x float>, ptr %21, align 16, !tbaa !12
  %167 = load ptr, ptr %15, align 8, !tbaa !21
  %168 = getelementptr inbounds float, ptr %167, i64 28
  %169 = getelementptr inbounds float, ptr %168, i64 14
  %170 = call <4 x float> @_mm_loadu_ps(ptr noundef %169)
  %171 = call <4 x float> @_mm_mul_ps(<4 x float> noundef %166, <4 x float> noundef %170)
  %172 = call <4 x float> @_mm_add_ps(<4 x float> noundef %165, <4 x float> noundef %171)
  store <4 x float> %172, ptr %17, align 16, !tbaa !12
  %173 = load <4 x float>, ptr %18, align 16, !tbaa !12
  %174 = load <4 x float>, ptr %21, align 16, !tbaa !12
  %175 = load ptr, ptr %15, align 8, !tbaa !21
  %176 = getelementptr inbounds float, ptr %175, i64 28
  %177 = getelementptr inbounds float, ptr %176, i64 17
  %178 = call <4 x float> @_mm_loadu_ps(ptr noundef %177)
  %179 = call <4 x float> @_mm_mul_ps(<4 x float> noundef %174, <4 x float> noundef %178)
  %180 = call <4 x float> @_mm_add_ps(<4 x float> noundef %173, <4 x float> noundef %179)
  store <4 x float> %180, ptr %18, align 16, !tbaa !12
  %181 = load <4 x float>, ptr %22, align 16, !tbaa !12
  %182 = call <2 x i64> @_mm_castps_si128(<4 x float> noundef %181)
  %183 = bitcast <2 x i64> %182 to <4 x i32>
  %184 = shufflevector <4 x i32> %183, <4 x i32> poison, <4 x i32> <i32 3, i32 3, i32 3, i32 3>
  %185 = bitcast <4 x i32> %184 to <2 x i64>
  %186 = call <4 x float> @_mm_castsi128_ps(<2 x i64> noundef %185)
  store <4 x float> %186, ptr %21, align 16, !tbaa !12
  %187 = load <4 x float>, ptr %19, align 16, !tbaa !12
  %188 = load <4 x float>, ptr %21, align 16, !tbaa !12
  %189 = load ptr, ptr %15, align 8, !tbaa !21
  %190 = getelementptr inbounds float, ptr %189, i64 28
  %191 = getelementptr inbounds float, ptr %190, i64 21
  %192 = call <4 x float> @_mm_loadu_ps(ptr noundef %191)
  %193 = call <4 x float> @_mm_mul_ps(<4 x float> noundef %188, <4 x float> noundef %192)
  %194 = call <4 x float> @_mm_add_ps(<4 x float> noundef %187, <4 x float> noundef %193)
  store <4 x float> %194, ptr %19, align 16, !tbaa !12
  %195 = load <4 x float>, ptr %20, align 16, !tbaa !12
  %196 = load <4 x float>, ptr %21, align 16, !tbaa !12
  %197 = load ptr, ptr %15, align 8, !tbaa !21
  %198 = getelementptr inbounds float, ptr %197, i64 28
  %199 = getelementptr inbounds float, ptr %198, i64 24
  %200 = call <4 x float> @_mm_loadu_ps(ptr noundef %199)
  %201 = call <4 x float> @_mm_mul_ps(<4 x float> noundef %196, <4 x float> noundef %200)
  %202 = call <4 x float> @_mm_add_ps(<4 x float> noundef %195, <4 x float> noundef %201)
  store <4 x float> %202, ptr %20, align 16, !tbaa !12
  %203 = load <4 x float>, ptr %17, align 16, !tbaa !12
  %204 = load <4 x float>, ptr %19, align 16, !tbaa !12
  %205 = call <4 x float> @_mm_add_ps(<4 x float> noundef %203, <4 x float> noundef %204)
  store <4 x float> %205, ptr %17, align 16, !tbaa !12
  %206 = load <4 x float>, ptr %18, align 16, !tbaa !12
  %207 = load <4 x float>, ptr %20, align 16, !tbaa !12
  %208 = call <4 x float> @_mm_add_ps(<4 x float> noundef %206, <4 x float> noundef %207)
  store <4 x float> %208, ptr %18, align 16, !tbaa !12
  %209 = load ptr, ptr %14, align 8, !tbaa !21
  %210 = getelementptr inbounds float, ptr %209, i64 3
  %211 = load <4 x float>, ptr %18, align 16, !tbaa !12
  call void @_mm_storeu_ps(ptr noundef %210, <4 x float> noundef %211)
  %212 = load ptr, ptr %14, align 8, !tbaa !21
  %213 = load <4 x float>, ptr %17, align 16, !tbaa !12
  call void @_mm_storeu_ps(ptr noundef %212, <4 x float> noundef %213)
  %214 = load i32, ptr %12, align 4, !tbaa !26
  %215 = load ptr, ptr %11, align 8, !tbaa !21
  %216 = sext i32 %214 to i64
  %217 = getelementptr inbounds float, ptr %215, i64 %216
  store ptr %217, ptr %11, align 8, !tbaa !21
  %218 = load ptr, ptr %10, align 8, !tbaa !3
  %219 = getelementptr inbounds nuw %struct.stbir__contributors, ptr %218, i32 1
  store ptr %219, ptr %10, align 8, !tbaa !3
  %220 = load ptr, ptr %14, align 8, !tbaa !21
  %221 = getelementptr inbounds float, ptr %220, i64 7
  store ptr %221, ptr %14, align 8, !tbaa !21
  call void @llvm.lifetime.end.p0(i64 16, ptr %22) #12
  call void @llvm.lifetime.end.p0(i64 16, ptr %21) #12
  call void @llvm.lifetime.end.p0(i64 16, ptr %20) #12
  call void @llvm.lifetime.end.p0(i64 16, ptr %19) #12
  call void @llvm.lifetime.end.p0(i64 16, ptr %18) #12
  call void @llvm.lifetime.end.p0(i64 16, ptr %17) #12
  call void @llvm.lifetime.end.p0(i64 8, ptr %16) #12
  call void @llvm.lifetime.end.p0(i64 8, ptr %15) #12
  br label %222

222:                                              ; preds = %29
  %223 = load ptr, ptr %14, align 8, !tbaa !21
  %224 = load ptr, ptr %13, align 8, !tbaa !21
  %225 = icmp ult ptr %223, %224
  br i1 %225, label %29, label %226, !llvm.loop !760

226:                                              ; preds = %222
  call void @llvm.lifetime.end.p0(i64 8, ptr %14) #12
  call void @llvm.lifetime.end.p0(i64 8, ptr %13) #12
  ret void
}